; Function Attrs: nounwind uwtable
define hidden void @_mi_abandoned_reclaim_all(ptr noundef %0, ptr noundef %1) local_unnamed_addr #4 {
  %3 = alloca %struct.mi_arena_field_cursor_s, align 8
  call void @llvm.lifetime.start.p0(i64 48, ptr nonnull %3) #12
  %4 = getelementptr inbounds nuw i8, ptr %1, i64 904
  %5 = load ptr, ptr %4, align 8, !tbaa !85
  call void @_mi_arena_field_cursor_init(ptr noundef %0, ptr noundef %5, i1 noundef zeroext true, ptr noundef nonnull %3) #11
  %6 = call ptr @_mi_arena_segment_clear_abandoned_next(ptr noundef nonnull %3) #11
  %.not5 = icmp eq ptr %6, null
  br i1 %.not5, label %._crit_edge, label %.lr.ph

.lr.ph:                                           ; preds = %2, %.lr.ph
  %7 = phi ptr [ %9, %.lr.ph ], [ %6, %2 ]
  %8 = call fastcc ptr @mi_segment_reclaim(ptr noundef nonnull %7, ptr noundef %0, i64 noundef 0, ptr noundef null, ptr noundef nonnull %1) #10
  %9 = call ptr @_mi_arena_segment_clear_abandoned_next(ptr noundef nonnull %3) #11
  %.not = icmp eq ptr %9, null
  br i1 %.not, label %._crit_edge, label %.lr.ph, !llvm.loop !86

._crit_edge:                                      ; preds = %.lr.ph, %2
  call void @_mi_arena_field_cursor_done(ptr noundef nonnull %3) #11
  call void @llvm.lifetime.end.p0(i64 48, ptr nonnull %3) #12
  ret void
}